target datalayout = "e-m:e-p270:32:32-p271:32:32-p272:64:64-i64:64-i128:128-f80:128-n8:16:32:64-S128"
target triple = "x86_64-pc-linux-gnu"

%struct.SDL_VideoDevice = type { ptr, ptr, ptr, ptr, ptr, ptr, ptr, ptr, ptr, ptr, ptr, ptr, ptr, ptr, ptr, ptr, ptr, ptr, ptr, ptr, ptr, ptr, ptr, ptr, ptr, ptr, ptr, ptr, ptr, ptr, ptr, ptr, ptr, ptr, ptr, ptr, ptr, ptr, ptr, ptr, ptr, ptr, ptr, ptr, ptr, ptr, ptr, ptr, ptr, ptr, ptr, ptr, ptr, ptr, ptr, ptr, ptr, ptr, ptr, ptr, ptr, ptr, ptr, ptr, ptr, ptr, ptr, ptr, ptr, ptr, ptr, ptr, ptr, ptr, ptr, ptr, ptr, ptr, ptr, ptr, ptr, ptr, ptr, ptr, ptr, ptr, ptr, ptr, ptr, ptr, ptr, ptr, ptr, ptr, ptr, ptr, ptr, i64, i8, i8, i8, ptr, i32, ptr, %struct.SDL_Rect, ptr, ptr, i32, ptr, ptr, ptr, ptr, i64, ptr, i8, i32, i32, %struct.anon, ptr, ptr, ptr, ptr, ptr, ptr, %struct.SDL_AtomicInt, %struct.SDL_AtomicInt, i8, %struct.anon.0, ptr, ptr, ptr, ptr, ptr }
%struct.SDL_Rect = type { i32, i32, i32, i32 }
%struct.anon = type { i32, i32, i32, i32, i32, i32, i32, i32, i32, i32, i32, i32, i32, i32, i32, i32, i32, i32, i32, i32, i32, i32, i32, i32, i32, i32, i32, i32, i32, [256 x i8], ptr }
%struct.SDL_AtomicInt = type { i32 }
%struct.anon.0 = type { ptr, ptr, i32, [256 x i8], ptr }
%struct.SDL_VideoData = type { ptr, ptr, i32, ptr, i64, i32, ptr, i32, i64, i64, %struct.X11_ClipboardData, %struct.X11_ClipboardData, ptr, i64, %struct.X11_SettingsData, i8, %struct.anon.1, [256 x i32], i8, i8, i8, i64, i8, %struct.SDL_Point, i32, ptr, i32, i8, i32, %struct.anon.2, i8, i64, ptr, ptr, i8, i8, i8 }
%struct.X11_ClipboardData = type { ptr, ptr, ptr, i64, i32 }
%struct.X11_SettingsData = type { ptr }
%struct.anon.1 = type { i64, i64, i64, i64, i64, i64, i64, i64, i64, i64, i64, i64, i64, i64, i64, i64, i64, i64, i64, i64, i64, i64, i64, i64, i64, i64, i64, i64, i64, i64, i64, i64, i64, i64, i64, i64, i64, i64, i64, i64, i64, i64, i64, i64, i64, i64, i64, i64, i64, i64, i64, i64, i64 }
%struct.SDL_Point = type { i32, i32 }
%struct.anon.2 = type { ptr, i32, i32, i32, i16, i32, i32 }

@.str = private unnamed_addr constant [20 x i8] c"SDL_VIDEO_FORCE_EGL\00", align 1

; Function Attrs: nounwind uwtable
define hidden zeroext i1 @X11_GLES_LoadLibrary(ptr noundef %0, ptr noundef %1) #0 {
  %3 = alloca i1, align 1
  %4 = alloca ptr, align 8
  %5 = alloca ptr, align 8
  %6 = alloca ptr, align 8
  %7 = alloca i32, align 4
  store ptr %0, ptr %4, align 8
  store ptr %1, ptr %5, align 8
  call void @llvm.lifetime.start.p0(i64 8, ptr %6) #3
  %8 = load ptr, ptr %4, align 8
  %9 = getelementptr inbounds nuw %struct.SDL_VideoDevice, ptr %8, i32 0, i32 128
  %10 = load ptr, ptr %9, align 8
  store ptr %10, ptr %6, align 8
  %11 = load ptr, ptr %4, align 8
  %12 = getelementptr inbounds nuw %struct.SDL_VideoDevice, ptr %11, i32 0, i32 117
  %13 = getelementptr inbounds nuw %struct.anon, ptr %12, i32 0, i32 20
  %14 = load i32, ptr %13, align 8
  %15 = icmp ne i32 %14, 4
  br i1 %15, label %16, label %41

16:                                               ; preds = %2
  %17 = call zeroext i1 @SDL_GetHintBoolean_REAL(ptr noundef @.str, i1 noundef zeroext false)
  br i1 %17, label %41, label %18

18:                                               ; preds = %16
  %19 = load ptr, ptr %4, align 8
  call void @SDL_EGL_UnloadLibrary(ptr noundef %19)
  %20 = load ptr, ptr %4, align 8
  %21 = getelementptr inbounds nuw %struct.SDL_VideoDevice, ptr %20, i32 0, i32 50
  store ptr @X11_GL_LoadLibrary, ptr %21, align 8
  %22 = load ptr, ptr %4, align 8
  %23 = getelementptr inbounds nuw %struct.SDL_VideoDevice, ptr %22, i32 0, i32 51
  store ptr @X11_GL_GetProcAddress, ptr %23, align 8
  %24 = load ptr, ptr %4, align 8
  %25 = getelementptr inbounds nuw %struct.SDL_VideoDevice, ptr %24, i32 0, i32 52
  store ptr @X11_GL_UnloadLibrary, ptr %25, align 8
  %26 = load ptr, ptr %4, align 8
  %27 = getelementptr inbounds nuw %struct.SDL_VideoDevice, ptr %26, i32 0, i32 53
  store ptr @X11_GL_CreateContext, ptr %27, align 8
  %28 = load ptr, ptr %4, align 8
  %29 = getelementptr inbounds nuw %struct.SDL_VideoDevice, ptr %28, i32 0, i32 54
  store ptr @X11_GL_MakeCurrent, ptr %29, align 8
  %30 = load ptr, ptr %4, align 8
  %31 = getelementptr inbounds nuw %struct.SDL_VideoDevice, ptr %30, i32 0, i32 56
  store ptr @X11_GL_SetSwapInterval, ptr %31, align 8
  %32 = load ptr, ptr %4, align 8
  %33 = getelementptr inbounds nuw %struct.SDL_VideoDevice, ptr %32, i32 0, i32 57
  store ptr @X11_GL_GetSwapInterval, ptr %33, align 8
  %34 = load ptr, ptr %4, align 8
  %35 = getelementptr inbounds nuw %struct.SDL_VideoDevice, ptr %34, i32 0, i32 58
  store ptr @X11_GL_SwapWindow, ptr %35, align 8
  %36 = load ptr, ptr %4, align 8
  %37 = getelementptr inbounds nuw %struct.SDL_VideoDevice, ptr %36, i32 0, i32 59
  store ptr @X11_GL_DestroyContext, ptr %37, align 8
  %38 = load ptr, ptr %4, align 8
  %39 = load ptr, ptr %5, align 8
  %40 = call zeroext i1 @X11_GL_LoadLibrary(ptr noundef %38, ptr noundef %39)
  store i1 %40, ptr %3, align 1
  store i32 1, ptr %7, align 4
  br label %52

41:                                               ; preds = %16, %2
  %42 = load ptr, ptr %4, align 8
  %43 = load ptr, ptr %5, align 8
  %44 = load ptr, ptr %6, align 8
  %45 = getelementptr inbounds nuw %struct.SDL_VideoData, ptr %44, i32 0, i32 0
  %46 = load ptr, ptr %45, align 8
  %47 = load ptr, ptr %4, align 8
  %48 = getelementptr inbounds nuw %struct.SDL_VideoDevice, ptr %47, i32 0, i32 117
  %49 = getelementptr inbounds nuw %struct.anon, ptr %48, i32 0, i32 27
  %50 = load i32, ptr %49, align 4
  %51 = call zeroext i1 @SDL_EGL_LoadLibrary(ptr noundef %42, ptr noundef %43, ptr noundef %46, i32 noundef %50)
  store i1 %51, ptr %3, align 1
  store i32 1, ptr %7, align 4
  br label %52

52:                                               ; preds = %41, %18
  call void @llvm.lifetime.end.p0(i64 8, ptr %6) #3
  %53 = load i1, ptr %3, align 1
  ret i1 %53
}