; Function Attrs: nounwind uwtable
define hidden zeroext i1 @X11_GLES_LoadLibrary(ptr noundef %0, ptr noundef %1) local_unnamed_addr #0 {
  %3 = getelementptr inbounds nuw i8, ptr %0, i64 1656
  %4 = load ptr, ptr %3, align 8
  %5 = getelementptr inbounds nuw i8, ptr %0, i64 1000
  %6 = load i32, ptr %5, align 8
  %.not = icmp eq i32 %6, 4
  br i1 %.not, label %20, label %7

7:                                                ; preds = %2
  %8 = tail call zeroext i1 @SDL_GetHintBoolean_REAL(ptr noundef nonnull @.str, i1 noundef zeroext false) #4
  br i1 %8, label %20, label %9

9:                                                ; preds = %7
  tail call void @SDL_EGL_UnloadLibrary(ptr noundef nonnull %0) #4
  %10 = getelementptr inbounds nuw i8, ptr %0, i64 400
  store ptr @X11_GL_LoadLibrary, ptr %10, align 8
  %11 = getelementptr inbounds nuw i8, ptr %0, i64 408
  store ptr @X11_GL_GetProcAddress, ptr %11, align 8
  %12 = getelementptr inbounds nuw i8, ptr %0, i64 416
  store ptr @X11_GL_UnloadLibrary, ptr %12, align 8
  %13 = getelementptr inbounds nuw i8, ptr %0, i64 424
  store ptr @X11_GL_CreateContext, ptr %13, align 8
  %14 = getelementptr inbounds nuw i8, ptr %0, i64 432
  store ptr @X11_GL_MakeCurrent, ptr %14, align 8
  %15 = getelementptr inbounds nuw i8, ptr %0, i64 448
  store ptr @X11_GL_SetSwapInterval, ptr %15, align 8
  %16 = getelementptr inbounds nuw i8, ptr %0, i64 456
  store ptr @X11_GL_GetSwapInterval, ptr %16, align 8
  %17 = getelementptr inbounds nuw i8, ptr %0, i64 464
  store ptr @X11_GL_SwapWindow, ptr %17, align 8
  %18 = getelementptr inbounds nuw i8, ptr %0, i64 472
  store ptr @X11_GL_DestroyContext, ptr %18, align 8
  %19 = tail call zeroext i1 @X11_GL_LoadLibrary(ptr noundef nonnull %0, ptr noundef %1) #4
  br label %25

20:                                               ; preds = %7, %2
  %21 = load ptr, ptr %4, align 8
  %22 = getelementptr inbounds nuw i8, ptr %0, i64 1028
  %23 = load i32, ptr %22, align 4
  %24 = tail call zeroext i1 @SDL_EGL_LoadLibrary(ptr noundef nonnull %0, ptr noundef %1, ptr noundef %21, i32 noundef %23) #4
  br label %25

25:                                               ; preds = %20, %9
  %.0 = phi i1 [ %24, %20 ], [ %19, %9 ]
  ret i1 %.0
}